; Function Attrs: mustprogress nofree norecurse nosync nounwind willreturn memory(read, inaccessiblemem: none) uwtable
define noundef signext i8 @_ZNK6icu_7521RuleCharacterIterator5atEndEv(ptr nocapture noundef nonnull readonly align 8 dereferenceable(36) %this) local_unnamed_addr #1 align 2 {
entry:
  %buf = getelementptr inbounds i8, ptr %this, i64 24
  %0 = load ptr, ptr %buf, align 8
  %cmp = icmp eq ptr %0, null
  br i1 %cmp, label %land.rhs, label %land.end

land.rhs:                                         ; preds = %entry
  %pos = getelementptr inbounds i8, ptr %this, i64 8
  %1 = load ptr, ptr %pos, align 8
  %index.i = getelementptr inbounds i8, ptr %1, i64 8
  %2 = load i32, ptr %index.i, align 8
  %3 = load ptr, ptr %this, align 8
  %fUnion.i.i = getelementptr inbounds i8, ptr %3, i64 8
  %4 = load i16, ptr %fUnion.i.i, align 8
  %cmp.i.i = icmp slt i16 %4, 0
  %5 = ashr i16 %4, 5
  %shr.i.i = sext i16 %5 to i32
  %fLength.i = getelementptr inbounds i8, ptr %3, i64 12
  %6 = load i32, ptr %fLength.i, align 4
  %cond.i = select i1 %cmp.i.i, i32 %6, i32 %shr.i.i
  %cmp3 = icmp eq i32 %2, %cond.i
  %7 = zext i1 %cmp3 to i8
  br label %land.end

land.end:                                         ; preds = %land.rhs, %entry
  %conv = phi i8 [ 0, %entry ], [ %7, %land.rhs ]
  ret i8 %conv
}